target datalayout = "e-m:e-p270:32:32-p271:32:32-p272:64:64-i64:64-i128:128-f80:128-n8:16:32:64-S128"
target triple = "x86_64-pc-linux-gnu"

%struct.TestConfig = type <{ i32, i8, i8, i8, i8, %"class.std::__cxx11::basic_string", %"class.std::__cxx11::basic_string", %"class.std::__cxx11::basic_string", %"class.std::__cxx11::basic_string", %"class.std::__cxx11::basic_string", i8, [7 x i8], %"class.std::__cxx11::basic_string", %"class.std::__cxx11::basic_string", i8, [7 x i8], %"class.std::__cxx11::basic_string", i8, i8, i8, i8, i8, i8, i8, i8, %"class.std::__cxx11::basic_string", %"class.std::__cxx11::basic_string", i8, [7 x i8], %"class.std::__cxx11::basic_string", %"class.std::__cxx11::basic_string", %"class.std::__cxx11::basic_string", %"class.std::__cxx11::basic_string", %"class.std::__cxx11::basic_string", i8, i8, i8, [5 x i8], %"class.std::__cxx11::basic_string", %"class.std::__cxx11::basic_string", %"class.std::__cxx11::basic_string", i8, [7 x i8], %"class.std::__cxx11::basic_string", i8, [7 x i8], %"class.std::__cxx11::basic_string", i32, i32, i32, i8, i8, i8, i8, i8, i8, [6 x i8], %"class.std::__cxx11::basic_string", %"class.std::__cxx11::basic_string", %"class.std::__cxx11::basic_string", i8, [3 x i8], i32, %"class.std::__cxx11::basic_string", %"class.std::__cxx11::basic_string", i8, i8, i8, i8, i8, i8, i8, i8, i8, i8, [6 x i8], %"class.std::__cxx11::basic_string", i8, i8, i8, i8, i8, [3 x i8], %"class.std::__cxx11::basic_string", i32, i8, i8, i8, i8, i32, i8, i8, i8, i8, i32, i8, [3 x i8] }>
%"class.std::__cxx11::basic_string" = type { %"struct.std::__cxx11::basic_string<char>::_Alloc_hider", i64, %union.anon }
%"struct.std::__cxx11::basic_string<char>::_Alloc_hider" = type { ptr }
%union.anon = type { i64, [8 x i8] }

@_ZL14g_config_index = internal global i32 0, align 4
@stderr = external global ptr, align 8
@.str.32 = private unnamed_addr constant [1 x i8] zeroinitializer, align 1
@.str.33 = private unnamed_addr constant [32 x i8] c"Server PSK hint did not match.\0A\00", align 1
@.str.34 = private unnamed_addr constant [23 x i8] c"PSK buffers too small\0A\00", align 1

; Function Attrs: mustprogress nounwind uwtable
define available_externally noundef ptr @_ZNKSt7__cxx1112basic_stringIcSt11char_traitsIcESaIcEE7_M_dataEv(ptr noundef nonnull align 8 dereferenceable(32) %0) #4 align 2 {
  %2 = alloca ptr, align 8
  store ptr %0, ptr %2, align 8, !tbaa !187
  %3 = load ptr, ptr %2, align 8
  %4 = getelementptr inbounds nuw %"class.std::__cxx11::basic_string", ptr %3, i32 0, i32 0
  %5 = getelementptr inbounds nuw %"struct.std::__cxx11::basic_string<char>::_Alloc_hider", ptr %4, i32 0, i32 0
  %6 = load ptr, ptr %5, align 8, !tbaa !197
  ret ptr %6
}

; Function Attrs: mustprogress nounwind uwtable
define available_externally noundef ptr @_ZNKSt7__cxx1112basic_stringIcSt11char_traitsIcESaIcEE4dataEv(ptr noundef nonnull align 8 dereferenceable(32) %0) #4 align 2 {
  %2 = alloca ptr, align 8
  store ptr %0, ptr %2, align 8, !tbaa !187
  %3 = load ptr, ptr %2, align 8
  %4 = call noundef ptr @_ZNKSt7__cxx1112basic_stringIcSt11char_traitsIcESaIcEE7_M_dataEv(ptr noundef nonnull align 8 dereferenceable(32) %3)
  ret ptr %4
}

; Function Attrs: mustprogress nounwind uwtable
define available_externally noundef i64 @_ZNKSt7__cxx1112basic_stringIcSt11char_traitsIcESaIcEE4sizeEv(ptr noundef nonnull align 8 dereferenceable(32) %0) #4 align 2 {
  %2 = alloca ptr, align 8
  store ptr %0, ptr %2, align 8, !tbaa !187
  %3 = load ptr, ptr %2, align 8
  %4 = getelementptr inbounds nuw %"class.std::__cxx11::basic_string", ptr %3, i32 0, i32 1
  %5 = load i64, ptr %4, align 8, !tbaa !196
  ret i64 %5
}

; Function Attrs: mustprogress nounwind uwtable
define available_externally noundef ptr @_ZNKSt7__cxx1112basic_stringIcSt11char_traitsIcESaIcEE5c_strEv(ptr noundef nonnull align 8 dereferenceable(32) %0) #4 align 2 {
  %2 = alloca ptr, align 8
  store ptr %0, ptr %2, align 8, !tbaa !187
  %3 = load ptr, ptr %2, align 8
  %4 = call noundef ptr @_ZNKSt7__cxx1112basic_stringIcSt11char_traitsIcESaIcEE7_M_dataEv(ptr noundef nonnull align 8 dereferenceable(32) %3)
  ret ptr %4
}

; Function Attrs: mustprogress uwtable
define internal noundef ptr @_ZL12GetConfigPtrPK6ssl_st(ptr noundef %0) #6 {
  %2 = alloca ptr, align 8
  store ptr %0, ptr %2, align 8, !tbaa !204
  %3 = load ptr, ptr %2, align 8, !tbaa !204
  %4 = load i32, ptr @_ZL14g_config_index, align 4, !tbaa !6
  %5 = call ptr @SSL_get_ex_data(ptr noundef %3, i32 noundef %4)
  ret ptr %5
}

; Function Attrs: mustprogress uwtable
define internal noundef i32 @_ZL17PskClientCallbackP6ssl_stPKcPcjPhj(ptr noundef %0, ptr noundef %1, ptr noundef %2, i32 noundef %3, ptr noundef %4, i32 noundef %5) #6 {
  %7 = alloca i32, align 4
  %8 = alloca ptr, align 8
  %9 = alloca ptr, align 8
  %10 = alloca ptr, align 8
  %11 = alloca i32, align 4
  %12 = alloca ptr, align 8
  %13 = alloca i32, align 4
  %14 = alloca ptr, align 8
  %15 = alloca i32, align 4
  store ptr %0, ptr %8, align 8, !tbaa !204
  store ptr %1, ptr %9, align 8, !tbaa !13
  store ptr %2, ptr %10, align 8, !tbaa !13
  store i32 %3, ptr %11, align 4, !tbaa !6
  store ptr %4, ptr %12, align 8, !tbaa !13
  store i32 %5, ptr %13, align 4, !tbaa !6
  call void @llvm.lifetime.start.p0(i64 8, ptr %14) #18
  %16 = load ptr, ptr %8, align 8, !tbaa !204
  %17 = call noundef ptr @_ZL12GetConfigPtrPK6ssl_st(ptr noundef %16)
  store ptr %17, ptr %14, align 8, !tbaa !29
  %18 = load ptr, ptr %9, align 8, !tbaa !13
  %19 = icmp ne ptr %18, null
  br i1 %19, label %20, label %22

20:                                               ; preds = %6
  %21 = load ptr, ptr %9, align 8, !tbaa !13
  br label %23

22:                                               ; preds = %6
  br label %23

23:                                               ; preds = %22, %20
  %24 = phi ptr [ %21, %20 ], [ @.str.32, %22 ]
  %25 = load ptr, ptr %14, align 8, !tbaa !29
  %26 = getelementptr inbounds nuw %struct.TestConfig, ptr %25, i32 0, i32 39
  %27 = call noundef ptr @_ZNKSt7__cxx1112basic_stringIcSt11char_traitsIcESaIcEE5c_strEv(ptr noundef nonnull align 8 dereferenceable(32) %26) #18
  %28 = call i32 @strcmp(ptr noundef %24, ptr noundef %27) #23
  %29 = icmp ne i32 %28, 0
  br i1 %29, label %30, label %33

30:                                               ; preds = %23
  %31 = load ptr, ptr @stderr, align 8, !tbaa !15
  %32 = call i32 (ptr, ptr, ...) @fprintf(ptr noundef %31, ptr noundef @.str.33) #18
  store i32 0, ptr %7, align 4
  store i32 1, ptr %15, align 4
  br label %69

33:                                               ; preds = %23
  %34 = load ptr, ptr %14, align 8, !tbaa !29
  %35 = getelementptr inbounds nuw %struct.TestConfig, ptr %34, i32 0, i32 39
  %36 = call noundef i64 @_ZNKSt7__cxx1112basic_stringIcSt11char_traitsIcESaIcEE4sizeEv(ptr noundef nonnull align 8 dereferenceable(32) %35) #18
  %37 = load i32, ptr %11, align 4, !tbaa !6
  %38 = zext i32 %37 to i64
  %39 = icmp uge i64 %36, %38
  br i1 %39, label %47, label %40

40:                                               ; preds = %33
  %41 = load ptr, ptr %14, align 8, !tbaa !29
  %42 = getelementptr inbounds nuw %struct.TestConfig, ptr %41, i32 0, i32 38
  %43 = call noundef i64 @_ZNKSt7__cxx1112basic_stringIcSt11char_traitsIcESaIcEE4sizeEv(ptr noundef nonnull align 8 dereferenceable(32) %42) #18
  %44 = load i32, ptr %13, align 4, !tbaa !6
  %45 = zext i32 %44 to i64
  %46 = icmp ugt i64 %43, %45
  br i1 %46, label %47, label %50

47:                                               ; preds = %40, %33
  %48 = load ptr, ptr @stderr, align 8, !tbaa !15
  %49 = call i32 (ptr, ptr, ...) @fprintf(ptr noundef %48, ptr noundef @.str.34) #18
  store i32 0, ptr %7, align 4
  store i32 1, ptr %15, align 4
  br label %69

50:                                               ; preds = %40
  %51 = load ptr, ptr %10, align 8, !tbaa !13
  %52 = load ptr, ptr %14, align 8, !tbaa !29
  %53 = getelementptr inbounds nuw %struct.TestConfig, ptr %52, i32 0, i32 39
  %54 = call noundef ptr @_ZNKSt7__cxx1112basic_stringIcSt11char_traitsIcESaIcEE5c_strEv(ptr noundef nonnull align 8 dereferenceable(32) %53) #18
  %55 = load i32, ptr %11, align 4, !tbaa !6
  %56 = zext i32 %55 to i64
  %57 = call i64 @BUF_strlcpy(ptr noundef %51, ptr noundef %54, i64 noundef %56)
  %58 = load ptr, ptr %12, align 8, !tbaa !13
  %59 = load ptr, ptr %14, align 8, !tbaa !29
  %60 = getelementptr inbounds nuw %struct.TestConfig, ptr %59, i32 0, i32 38
  %61 = call noundef ptr @_ZNKSt7__cxx1112basic_stringIcSt11char_traitsIcESaIcEE4dataEv(ptr noundef nonnull align 8 dereferenceable(32) %60) #18
  %62 = load ptr, ptr %14, align 8, !tbaa !29
  %63 = getelementptr inbounds nuw %struct.TestConfig, ptr %62, i32 0, i32 38
  %64 = call noundef i64 @_ZNKSt7__cxx1112basic_stringIcSt11char_traitsIcESaIcEE4sizeEv(ptr noundef nonnull align 8 dereferenceable(32) %63) #18
  call void @llvm.memcpy.p0.p0.i64(ptr align 1 %58, ptr align 1 %61, i64 %64, i1 false)
  %65 = load ptr, ptr %14, align 8, !tbaa !29
  %66 = getelementptr inbounds nuw %struct.TestConfig, ptr %65, i32 0, i32 38
  %67 = call noundef i64 @_ZNKSt7__cxx1112basic_stringIcSt11char_traitsIcESaIcEE4sizeEv(ptr noundef nonnull align 8 dereferenceable(32) %66) #18
  %68 = trunc i64 %67 to i32
  store i32 %68, ptr %7, align 4
  store i32 1, ptr %15, align 4
  br label %69

69:                                               ; preds = %50, %47, %30
  call void @llvm.lifetime.end.p0(i64 8, ptr %14) #18
  %70 = load i32, ptr %7, align 4
  ret i32 %70
}