; Function Attrs: mustprogress uwtable
define internal noundef i32 @_ZL17PskClientCallbackP6ssl_stPKcPcjPhj(ptr noundef %0, ptr noundef readonly captures(address_is_null) %1, ptr noundef %2, i32 noundef %3, ptr noundef writeonly captures(none) %4, i32 noundef %5) #10 {
  %7 = load i32, ptr @_ZL14g_config_index, align 4, !tbaa !6
  %8 = tail call noundef ptr @SSL_get_ex_data(ptr noundef %0, i32 noundef %7)
  %.not = icmp eq ptr %1, null
  %9 = select i1 %.not, ptr @.str.32, ptr %1
  %10 = getelementptr inbounds nuw i8, ptr %8, i64 560
  %11 = load ptr, ptr %10, align 8, !tbaa !45
  %12 = tail call i32 @strcmp(ptr noundef nonnull dereferenceable(1) %9, ptr noundef nonnull dereferenceable(1) %11) #36
  %.not16 = icmp eq i32 %12, 0
  br i1 %.not16, label %16, label %13

13:                                               ; preds = %6
  %14 = load ptr, ptr @stderr, align 8, !tbaa !33
  %15 = tail call i64 @fwrite(ptr nonnull @.str.33, i64 31, i64 1, ptr %14) #32
  br label %35

16:                                               ; preds = %6
  %17 = getelementptr inbounds nuw i8, ptr %8, i64 568
  %18 = load i64, ptr %17, align 8, !tbaa !14
  %19 = zext i32 %3 to i64
  %.not17 = icmp ult i64 %18, %19
  br i1 %.not17, label %20, label %25

20:                                               ; preds = %16
  %21 = getelementptr inbounds nuw i8, ptr %8, i64 536
  %22 = load i64, ptr %21, align 8, !tbaa !14
  %23 = zext i32 %5 to i64
  %24 = icmp ugt i64 %22, %23
  br i1 %24, label %25, label %28

25:                                               ; preds = %20, %16
  %26 = load ptr, ptr @stderr, align 8, !tbaa !33
  %27 = tail call i64 @fwrite(ptr nonnull @.str.34, i64 22, i64 1, ptr %26) #32
  br label %35

28:                                               ; preds = %20
  %29 = getelementptr inbounds nuw i8, ptr %8, i64 528
  %30 = tail call i64 @BUF_strlcpy(ptr noundef %2, ptr noundef nonnull %11, i64 noundef %19)
  %31 = load ptr, ptr %29, align 8, !tbaa !45
  %32 = load i64, ptr %21, align 8, !tbaa !14
  tail call void @llvm.memcpy.p0.p0.i64(ptr align 1 %4, ptr align 1 %31, i64 %32, i1 false)
  %33 = load i64, ptr %21, align 8, !tbaa !14
  %34 = trunc i64 %33 to i32
  br label %35

35:                                               ; preds = %28, %25, %13
  %.0 = phi i32 [ 0, %13 ], [ 0, %25 ], [ %34, %28 ]
  ret i32 %.0
}